target datalayout = "e-m:e-p270:32:32-p271:32:32-p272:64:64-i64:64-i128:128-f80:128-n8:16:32:64-S128"
target triple = "x86_64-pc-linux-gnu"

%struct.slurm_conf_t = type { i64, ptr, i16, ptr, ptr, ptr, ptr, ptr, i16, ptr, ptr, ptr, ptr, ptr, ptr, ptr, i16, ptr, ptr, ptr, ptr, i16, ptr, ptr, ptr, i64, ptr, ptr, ptr, ptr, i16, ptr, ptr, i16, i32, ptr, i32, ptr, i32, i32, ptr, ptr, i64, i64, ptr, i16, i16, ptr, i32, i32, ptr, i32, ptr, i32, i16, i16, i16, ptr, i16, i16, ptr, ptr, i32, i16, i16, ptr, i32, i16, ptr, ptr, ptr, ptr, i16, ptr, ptr, ptr, ptr, i32, ptr, ptr, ptr, ptr, i16, i16, ptr, i32, i32, i32, i16, i16, ptr, ptr, i16, ptr, ptr, i32, i32, i32, i32, i32, i64, i32, i32, i16, ptr, ptr, i32, ptr, ptr, ptr, i16, i32, ptr, ptr, i16, ptr, ptr, i32, i16, ptr, ptr, ptr, ptr, i32, i32, i16, i16, i32, ptr, i16, ptr, i32, i32, i32, i32, i32, i32, ptr, i16, ptr, ptr, i32, i16, ptr, i32, i16, i16, ptr, ptr, ptr, i16, ptr, ptr, ptr, ptr, i16, i16, ptr, i16, ptr, i16, ptr, i16, ptr, i16, ptr, ptr, ptr, ptr, i16, ptr, ptr, ptr, i32, ptr, i32, ptr, ptr, i16, ptr, ptr, i32, i16, ptr, ptr, i16, i16, ptr, i16, ptr, ptr, ptr, i32, ptr, i16, i16, ptr, ptr, ptr, ptr, ptr, ptr, ptr, ptr, i16, i32, i16, ptr, ptr, ptr, ptr, i32, ptr, ptr, ptr, i16, ptr, ptr, ptr, i16, ptr, i16, ptr, i16, i16, ptr }
%struct.log_options_t = type { i32, i32, i32, i8, i8, i8, i32 }

@slurm_conf = external global %struct.slurm_conf_t, align 8
@daemonize = internal global i8 1, align 1
@update_log_levels.conf_init = internal global i8 0, align 1
@update_log_levels.conf_slurmctld_debug = internal global i32 0, align 4
@update_log_levels.conf_syslog_debug = internal global i32 0, align 4
@__const.update_log_levels.log_opts = private unnamed_addr constant { i32, i32, i32, i8, i8, i8, i8, i32 } { i32 3, i32 3, i32 3, i8 1, i8 0, i8 0, i8 0, i32 0 }, align 4
@.str.77 = private unnamed_addr constant [53 x i8] c"slurmctld log levels: stderr=%s logfile=%s syslog=%s\00", align 1

; Function Attrs: nounwind uwtable
define dso_local void @update_log_levels(i32 noundef %0, i32 noundef %1) #0 {
  %3 = alloca i32, align 4
  %4 = alloca i32, align 4
  %5 = alloca %struct.log_options_t, align 8
  %6 = alloca i32, align 4
  %7 = alloca i32, align 4
  store i32 %0, ptr %3, align 4
  store i32 %1, ptr %4, align 4
  call void @llvm.lifetime.start.p0(i64 20, ptr %5) #11
  call void @llvm.memcpy.p0.p0.i64(ptr align 4 %5, ptr align 4 @__const.update_log_levels.log_opts, i64 20, i1 false)
  call void @llvm.lifetime.start.p0(i64 4, ptr %6) #11
  call void @llvm.lifetime.start.p0(i64 4, ptr %7) #11
  %8 = load i8, ptr @update_log_levels.conf_init, align 1, !range !8, !noundef !9
  %9 = trunc i8 %8 to i1
  br i1 %9, label %15, label %10

10:                                               ; preds = %2
  %11 = load i16, ptr getelementptr inbounds nuw (%struct.slurm_conf_t, ptr @slurm_conf, i32 0, i32 178), align 8
  %12 = zext i16 %11 to i32
  store i32 %12, ptr @update_log_levels.conf_slurmctld_debug, align 4
  %13 = load i16, ptr getelementptr inbounds nuw (%struct.slurm_conf_t, ptr @slurm_conf, i32 0, i32 185), align 8
  %14 = zext i16 %13 to i32
  store i32 %14, ptr @update_log_levels.conf_syslog_debug, align 4
  store i8 1, ptr @update_log_levels.conf_init, align 1
  br label %15

15:                                               ; preds = %10, %2
  %16 = load i32, ptr %3, align 4
  %17 = icmp slt i32 %16, 9
  br i1 %17, label %18, label %20

18:                                               ; preds = %15
  %19 = load i32, ptr %3, align 4
  br label %21

20:                                               ; preds = %15
  br label %21

21:                                               ; preds = %20, %18
  %22 = phi i32 [ %19, %18 ], [ 9, %20 ]
  store i32 %22, ptr %6, align 4
  %23 = load i32, ptr %6, align 4
  %24 = icmp sgt i32 %23, 0
  br i1 %24, label %25, label %27

25:                                               ; preds = %21
  %26 = load i32, ptr %6, align 4
  br label %28

27:                                               ; preds = %21
  br label %28

28:                                               ; preds = %27, %25
  %29 = phi i32 [ %26, %25 ], [ 0, %27 ]
  store i32 %29, ptr %6, align 4
  %30 = load i32, ptr %4, align 4
  %31 = icmp slt i32 %30, 9
  br i1 %31, label %32, label %34

32:                                               ; preds = %28
  %33 = load i32, ptr %4, align 4
  br label %35

34:                                               ; preds = %28
  br label %35

35:                                               ; preds = %34, %32
  %36 = phi i32 [ %33, %32 ], [ 9, %34 ]
  store i32 %36, ptr %7, align 4
  %37 = load i32, ptr %7, align 4
  %38 = icmp sgt i32 %37, 0
  br i1 %38, label %39, label %41

39:                                               ; preds = %35
  %40 = load i32, ptr %7, align 4
  br label %42

41:                                               ; preds = %35
  br label %42

42:                                               ; preds = %41, %39
  %43 = phi i32 [ %40, %39 ], [ 0, %41 ]
  store i32 %43, ptr %7, align 4
  %44 = load i8, ptr @daemonize, align 1, !range !8, !noundef !9
  %45 = trunc i8 %44 to i1
  br i1 %45, label %46, label %48

46:                                               ; preds = %42
  %47 = getelementptr inbounds nuw %struct.log_options_t, ptr %5, i32 0, i32 0
  store i32 0, ptr %47, align 4
  br label %51

48:                                               ; preds = %42
  %49 = load i32, ptr %6, align 4
  %50 = getelementptr inbounds nuw %struct.log_options_t, ptr %5, i32 0, i32 0
  store i32 %49, ptr %50, align 4
  br label %51

51:                                               ; preds = %48, %46
  %52 = load ptr, ptr getelementptr inbounds nuw (%struct.slurm_conf_t, ptr @slurm_conf, i32 0, i32 179), align 8
  %53 = icmp ne ptr %52, null
  br i1 %53, label %54, label %60

54:                                               ; preds = %51
  %55 = load i32, ptr @update_log_levels.conf_slurmctld_debug, align 4
  %56 = icmp ne i32 %55, 0
  br i1 %56, label %57, label %60

57:                                               ; preds = %54
  %58 = load i32, ptr %6, align 4
  %59 = getelementptr inbounds nuw %struct.log_options_t, ptr %5, i32 0, i32 2
  store i32 %58, ptr %59, align 4
  br label %62

60:                                               ; preds = %54, %51
  %61 = getelementptr inbounds nuw %struct.log_options_t, ptr %5, i32 0, i32 2
  store i32 0, ptr %61, align 4
  br label %62

62:                                               ; preds = %60, %57
  %63 = load i32, ptr @update_log_levels.conf_syslog_debug, align 4
  %64 = icmp eq i32 %63, 0
  br i1 %64, label %65, label %67

65:                                               ; preds = %62
  %66 = getelementptr inbounds nuw %struct.log_options_t, ptr %5, i32 0, i32 1
  store i32 0, ptr %66, align 4
  br label %93

67:                                               ; preds = %62
  %68 = load i16, ptr getelementptr inbounds nuw (%struct.slurm_conf_t, ptr @slurm_conf, i32 0, i32 185), align 8
  %69 = zext i16 %68 to i32
  %70 = icmp ne i32 %69, 10
  br i1 %70, label %71, label %74

71:                                               ; preds = %67
  %72 = load i32, ptr %7, align 4
  %73 = getelementptr inbounds nuw %struct.log_options_t, ptr %5, i32 0, i32 1
  store i32 %72, ptr %73, align 4
  br label %92

74:                                               ; preds = %67
  %75 = load i8, ptr @daemonize, align 1, !range !8, !noundef !9
  %76 = trunc i8 %75 to i1
  br i1 %76, label %79, label %77

77:                                               ; preds = %74
  %78 = getelementptr inbounds nuw %struct.log_options_t, ptr %5, i32 0, i32 1
  store i32 0, ptr %78, align 4
  br label %91

79:                                               ; preds = %74
  %80 = load ptr, ptr getelementptr inbounds nuw (%struct.slurm_conf_t, ptr @slurm_conf, i32 0, i32 179), align 8
  %81 = icmp ne ptr %80, null
  br i1 %81, label %88, label %82

82:                                               ; preds = %79
  %83 = load i32, ptr @update_log_levels.conf_slurmctld_debug, align 4
  %84 = icmp sgt i32 %83, 0
  br i1 %84, label %85, label %88

85:                                               ; preds = %82
  %86 = load i32, ptr %6, align 4
  %87 = getelementptr inbounds nuw %struct.log_options_t, ptr %5, i32 0, i32 1
  store i32 %86, ptr %87, align 4
  br label %90

88:                                               ; preds = %82, %79
  %89 = getelementptr inbounds nuw %struct.log_options_t, ptr %5, i32 0, i32 1
  store i32 1, ptr %89, align 4
  br label %90

90:                                               ; preds = %88, %85
  br label %91

91:                                               ; preds = %90, %77
  br label %92

92:                                               ; preds = %91, %71
  br label %93

93:                                               ; preds = %92, %65
  %94 = load ptr, ptr getelementptr inbounds nuw (%struct.slurm_conf_t, ptr @slurm_conf, i32 0, i32 179), align 8
  %95 = call i32 @log_alter(ptr noundef byval(%struct.log_options_t) align 8 %5, i32 noundef 24, ptr noundef %94)
  br label %96

96:                                               ; preds = %93
  br label %97

97:                                               ; preds = %96
  %98 = call i32 @get_log_level()
  %99 = icmp sge i32 %98, 5
  br i1 %99, label %100, label %113

100:                                              ; preds = %97
  %101 = getelementptr inbounds nuw %struct.log_options_t, ptr %5, i32 0, i32 0
  %102 = load i32, ptr %101, align 4
  %103 = trunc i32 %102 to i16
  %104 = call ptr @log_num2string(i16 noundef zeroext %103)
  %105 = getelementptr inbounds nuw %struct.log_options_t, ptr %5, i32 0, i32 2
  %106 = load i32, ptr %105, align 4
  %107 = trunc i32 %106 to i16
  %108 = call ptr @log_num2string(i16 noundef zeroext %107)
  %109 = getelementptr inbounds nuw %struct.log_options_t, ptr %5, i32 0, i32 1
  %110 = load i32, ptr %109, align 4
  %111 = trunc i32 %110 to i16
  %112 = call ptr @log_num2string(i16 noundef zeroext %111)
  call void (i32, ptr, ...) @log_var(i32 noundef 5, ptr noundef @.str.77, ptr noundef %104, ptr noundef %108, ptr noundef %112)
  br label %113

113:                                              ; preds = %100, %97
  br label %114

114:                                              ; preds = %113
  br label %115

115:                                              ; preds = %114
  br label %116

116:                                              ; preds = %115
  br label %117

117:                                              ; preds = %116
  call void @llvm.lifetime.end.p0(i64 4, ptr %7) #11
  call void @llvm.lifetime.end.p0(i64 4, ptr %6) #11
  call void @llvm.lifetime.end.p0(i64 20, ptr %5) #11
  ret void
}