; Function Attrs: nounwind uwtable
define dso_local void @update_log_levels(i32 noundef %0, i32 noundef %1) local_unnamed_addr #6 {
  %3 = alloca %struct.log_options_t, align 8
  call void @llvm.lifetime.start.p0(i64 20, ptr nonnull %3) #19
  call void @llvm.memcpy.p0.p0.i64(ptr noundef nonnull align 8 dereferenceable(20) %3, ptr noundef nonnull align 4 dereferenceable(20) @__const.update_log_levels.log_opts, i64 20, i1 false)
  %.b1617 = load i1, ptr @update_log_levels.conf_init, align 1
  br i1 %.b1617, label %._crit_edge, label %4

._crit_edge:                                      ; preds = %2
  %.pre = load i32, ptr @update_log_levels.conf_slurmctld_debug, align 4
  br label %9

4:                                                ; preds = %2
  %5 = load i16, ptr getelementptr inbounds nuw (i8, ptr @slurm_conf, i64 1192), align 8
  %6 = zext i16 %5 to i32
  store i32 %6, ptr @update_log_levels.conf_slurmctld_debug, align 4
  %7 = load i16, ptr getelementptr inbounds nuw (i8, ptr @slurm_conf, i64 1240), align 8
  %8 = zext i16 %7 to i32
  store i32 %8, ptr @update_log_levels.conf_syslog_debug, align 4
  store i1 true, ptr @update_log_levels.conf_init, align 1
  br label %9

9:                                                ; preds = %._crit_edge, %4
  %10 = phi i32 [ %.pre, %._crit_edge ], [ %6, %4 ]
  %11 = tail call i32 @llvm.smin.i32(i32 %0, i32 9)
  %12 = tail call i32 @llvm.smax.i32(i32 %11, i32 0)
  %13 = tail call i32 @llvm.smin.i32(i32 %1, i32 9)
  %14 = tail call i32 @llvm.smax.i32(i32 %13, i32 0)
  %.b15 = load i1, ptr @daemonize, align 1
  %. = select i1 %.b15, i32 %12, i32 0
  store i32 %., ptr %3, align 8
  %15 = load ptr, ptr getelementptr inbounds nuw (i8, ptr @slurm_conf, i64 1200), align 8
  %16 = icmp ne ptr %15, null
  %17 = icmp ne i32 %10, 0
  %or.cond = select i1 %16, i1 %17, i1 false
  %spec.select = select i1 %or.cond, i32 %12, i32 0
  %18 = getelementptr inbounds nuw i8, ptr %3, i64 8
  store i32 %spec.select, ptr %18, align 8
  %19 = load i32, ptr @update_log_levels.conf_syslog_debug, align 4
  %20 = icmp eq i32 %19, 0
  br i1 %20, label %21, label %23

21:                                               ; preds = %9
  %22 = getelementptr inbounds nuw i8, ptr %3, i64 4
  store i32 0, ptr %22, align 4
  br label %36

23:                                               ; preds = %9
  %24 = load i16, ptr getelementptr inbounds nuw (i8, ptr @slurm_conf, i64 1240), align 8
  %.not = icmp eq i16 %24, 10
  br i1 %.not, label %27, label %25

25:                                               ; preds = %23
  %26 = getelementptr inbounds nuw i8, ptr %3, i64 4
  store i32 %14, ptr %26, align 4
  br label %36

27:                                               ; preds = %23
  br i1 %.b15, label %28, label %30

28:                                               ; preds = %27
  %29 = getelementptr inbounds nuw i8, ptr %3, i64 4
  store i32 0, ptr %29, align 4
  br label %36

30:                                               ; preds = %27
  %31 = icmp eq ptr %15, null
  %32 = icmp sgt i32 %10, 0
  %or.cond3 = select i1 %31, i1 %32, i1 false
  %33 = getelementptr inbounds nuw i8, ptr %3, i64 4
  br i1 %or.cond3, label %34, label %35

34:                                               ; preds = %30
  store i32 %12, ptr %33, align 4
  br label %36

35:                                               ; preds = %30
  store i32 1, ptr %33, align 4
  br label %36

36:                                               ; preds = %25, %34, %35, %28, %21
  %37 = phi i32 [ %14, %25 ], [ %12, %34 ], [ 1, %35 ], [ 0, %28 ], [ 0, %21 ]
  %38 = tail call i32 @log_alter(ptr noundef nonnull byval(%struct.log_options_t) align 8 %3, i32 noundef 24, ptr noundef %15) #19
  %39 = tail call i32 @get_log_level() #19
  %40 = icmp sgt i32 %39, 4
  br i1 %40, label %41, label %48

41:                                               ; preds = %36
  %42 = trunc nuw nsw i32 %. to i16
  %43 = tail call ptr @log_num2string(i16 noundef zeroext %42) #19
  %44 = trunc nuw nsw i32 %spec.select to i16
  %45 = tail call ptr @log_num2string(i16 noundef zeroext %44) #19
  %46 = trunc nuw nsw i32 %37 to i16
  %47 = tail call ptr @log_num2string(i16 noundef zeroext %46) #19
  tail call void (i32, ptr, ...) @log_var(i32 noundef 5, ptr noundef nonnull @.str.77, ptr noundef %43, ptr noundef %45, ptr noundef %47) #19
  br label %48

48:                                               ; preds = %41, %36
  call void @llvm.lifetime.end.p0(i64 20, ptr nonnull %3) #19
  ret void
}